target datalayout = "e-m:e-p270:32:32-p271:32:32-p272:64:64-i64:64-i128:128-f80:128-n8:16:32:64-S128"
target triple = "x86_64-pc-linux-gnu"

%struct.Vec_Int_t_ = type { i32, i32, ptr }
%struct.Ivy_Obj_t_ = type { i32, i32, i32, i32, ptr, ptr, ptr, ptr, ptr, ptr, ptr, ptr }
%struct.Ivy_Man_t_ = type { ptr, ptr, ptr, ptr, ptr, %struct.Ivy_Obj_t_, [8 x i32], i32, i32, ptr, i32, i32, i32, i32, ptr, i32, ptr, ptr, ptr, i32, ptr, ptr, ptr, i64, i64 }
%struct.Ivy_FraigParams_t_ = type { i32, double, i32, i32, double, double, i32, i32, i32, i32, i32 }
%struct.Gia_Man_t_ = type { ptr, ptr, i32, i32, i32, i32, ptr, ptr, i32, i32, i32, ptr, ptr, %struct.Vec_Int_t_, %struct.Vec_Int_t_, i32, i32, i32, %struct.Vec_Int_t_, ptr, ptr, ptr, i32, i32, i32, i32, ptr, ptr, ptr, ptr, ptr, i32, i32, ptr, i32, ptr, ptr, ptr, ptr, ptr, ptr, ptr, ptr, ptr, ptr, ptr, ptr, ptr, ptr, ptr, ptr, ptr, ptr, %struct.Vec_Int_t_, %struct.Vec_Int_t_, ptr, ptr, ptr, ptr, ptr, ptr, ptr, ptr, ptr, ptr, ptr, ptr, ptr, ptr, ptr, ptr, ptr, ptr, ptr, ptr, ptr, i32, float, float, ptr, ptr, i32, ptr, ptr, ptr, ptr, ptr, ptr, ptr, ptr, ptr, ptr, ptr, ptr, ptr, ptr, ptr, i64, i64, ptr, ptr, i32, i32, i32, i32, i32, i32, i32, i32, i32, i32, i32, i32, ptr, ptr, ptr, ptr, ptr, ptr, ptr, ptr, i32, i32, i32, ptr, i32, i32, ptr, ptr, ptr, ptr, ptr, ptr, i32, i32, ptr, %struct.Vec_Int_t_, %struct.Vec_Int_t_, %struct.Vec_Int_t_, ptr, ptr, ptr, i32, i32, i32, i32, ptr, ptr, ptr, ptr, ptr }
%struct.Abc_Cex_t_ = type { i32, i32, i32, i32, i32, [0 x i32] }

; Function Attrs: inlinehint nounwind uwtable
define internal i32 @Ivy_ManPiNum(ptr noundef %0) #2 {
  %2 = alloca ptr, align 8
  store ptr %0, ptr %2, align 8, !tbaa !10
  %3 = load ptr, ptr %2, align 8, !tbaa !10
  %4 = getelementptr inbounds nuw %struct.Ivy_Man_t_, ptr %3, i32 0, i32 6
  %5 = getelementptr inbounds [8 x i32], ptr %4, i64 0, i64 1
  %6 = load i32, ptr %5, align 4, !tbaa !8
  ret i32 %6
}

; Function Attrs: nounwind uwtable
define ptr @Gia_ManIvyFraig(ptr noundef %0, i32 noundef %1, i32 noundef %2, i32 noundef %3) #0 {
  %5 = alloca ptr, align 8
  %6 = alloca ptr, align 8
  %7 = alloca i32, align 4
  %8 = alloca i32, align 4
  %9 = alloca i32, align 4
  %10 = alloca %struct.Ivy_FraigParams_t_, align 8
  %11 = alloca ptr, align 8
  %12 = alloca ptr, align 8
  %13 = alloca ptr, align 8
  %14 = alloca ptr, align 8
  %15 = alloca i32, align 4
  store ptr %0, ptr %6, align 8, !tbaa !108
  store i32 %1, ptr %7, align 4, !tbaa !8
  store i32 %2, ptr %8, align 4, !tbaa !8
  store i32 %3, ptr %9, align 4, !tbaa !8
  call void @llvm.lifetime.start.p0(i64 64, ptr %10) #11
  call void @llvm.lifetime.start.p0(i64 8, ptr %11) #11
  store ptr %10, ptr %11, align 8, !tbaa !61
  call void @llvm.lifetime.start.p0(i64 8, ptr %12) #11
  call void @llvm.lifetime.start.p0(i64 8, ptr %13) #11
  call void @llvm.lifetime.start.p0(i64 8, ptr %14) #11
  %16 = load ptr, ptr %6, align 8, !tbaa !108
  %17 = call ptr @Gia_ManToIvySimple(ptr noundef %16)
  store ptr %17, ptr %13, align 8, !tbaa !10
  %18 = load ptr, ptr %13, align 8, !tbaa !10
  %19 = icmp eq ptr %18, null
  br i1 %19, label %20, label %21

20:                                               ; preds = %4
  store ptr null, ptr %5, align 8
  store i32 1, ptr %15, align 4
  br label %77

21:                                               ; preds = %4
  %22 = load ptr, ptr %11, align 8, !tbaa !61
  call void @Ivy_FraigParamsDefault(ptr noundef %22)
  %23 = load i32, ptr %7, align 4, !tbaa !8
  %24 = load ptr, ptr %11, align 8, !tbaa !61
  %25 = getelementptr inbounds nuw %struct.Ivy_FraigParams_t_, ptr %24, i32 0, i32 9
  store i32 %23, ptr %25, align 4, !tbaa !76
  %26 = load i32, ptr %9, align 4, !tbaa !8
  %27 = load ptr, ptr %11, align 8, !tbaa !61
  %28 = getelementptr inbounds nuw %struct.Ivy_FraigParams_t_, ptr %27, i32 0, i32 7
  store i32 %26, ptr %28, align 4, !tbaa !65
  %29 = load i32, ptr %8, align 4, !tbaa !8
  %30 = load ptr, ptr %11, align 8, !tbaa !61
  %31 = getelementptr inbounds nuw %struct.Ivy_FraigParams_t_, ptr %30, i32 0, i32 6
  store i32 %29, ptr %31, align 8, !tbaa !77
  %32 = load ptr, ptr %11, align 8, !tbaa !61
  %33 = getelementptr inbounds nuw %struct.Ivy_FraigParams_t_, ptr %32, i32 0, i32 8
  store i32 1, ptr %33, align 8, !tbaa !78
  %34 = load ptr, ptr %13, align 8, !tbaa !10
  store ptr %34, ptr %14, align 8, !tbaa !10
  %35 = load ptr, ptr %11, align 8, !tbaa !61
  %36 = call ptr @Ivy_FraigPerform(ptr noundef %34, ptr noundef %35)
  store ptr %36, ptr %13, align 8, !tbaa !10
  %37 = load ptr, ptr %13, align 8, !tbaa !10
  %38 = call ptr @Gia_ManFromIvySimple(ptr noundef %37)
  store ptr %38, ptr %12, align 8, !tbaa !108
  %39 = load ptr, ptr %13, align 8, !tbaa !10
  %40 = getelementptr inbounds nuw %struct.Ivy_Man_t_, ptr %39, i32 0, i32 16
  %41 = load ptr, ptr %40, align 8, !tbaa !79
  %42 = icmp ne ptr %41, null
  br i1 %42, label %43, label %73

43:                                               ; preds = %21
  %44 = load ptr, ptr %13, align 8, !tbaa !10
  %45 = getelementptr inbounds nuw %struct.Ivy_Man_t_, ptr %44, i32 0, i32 16
  %46 = load ptr, ptr %45, align 8, !tbaa !79
  %47 = load ptr, ptr %13, align 8, !tbaa !10
  %48 = call i32 @Ivy_ManPiNum(ptr noundef %47)
  %49 = call ptr @Abc_CexDeriveFromCombModel(ptr noundef %46, i32 noundef %48, i32 noundef 0, i32 noundef -1)
  %50 = load ptr, ptr %6, align 8, !tbaa !108
  %51 = getelementptr inbounds nuw %struct.Gia_Man_t_, ptr %50, i32 0, i32 51
  store ptr %49, ptr %51, align 8, !tbaa !141
  %52 = load ptr, ptr %6, align 8, !tbaa !108
  %53 = load ptr, ptr %6, align 8, !tbaa !108
  %54 = getelementptr inbounds nuw %struct.Gia_Man_t_, ptr %53, i32 0, i32 51
  %55 = load ptr, ptr %54, align 8, !tbaa !141
  %56 = call i32 @Gia_ManFindFailedPoCex(ptr noundef %52, ptr noundef %55, i32 noundef 0)
  %57 = load ptr, ptr %6, align 8, !tbaa !108
  %58 = getelementptr inbounds nuw %struct.Gia_Man_t_, ptr %57, i32 0, i32 51
  %59 = load ptr, ptr %58, align 8, !tbaa !141
  %60 = getelementptr inbounds nuw %struct.Abc_Cex_t_, ptr %59, i32 0, i32 0
  store i32 %56, ptr %60, align 4, !tbaa !142
  %61 = load ptr, ptr %13, align 8, !tbaa !10
  %62 = getelementptr inbounds nuw %struct.Ivy_Man_t_, ptr %61, i32 0, i32 16
  %63 = load ptr, ptr %62, align 8, !tbaa !79
  %64 = icmp ne ptr %63, null
  br i1 %64, label %65, label %71

65:                                               ; preds = %43
  %66 = load ptr, ptr %13, align 8, !tbaa !10
  %67 = getelementptr inbounds nuw %struct.Ivy_Man_t_, ptr %66, i32 0, i32 16
  %68 = load ptr, ptr %67, align 8, !tbaa !79
  call void @free(ptr noundef %68) #11
  %69 = load ptr, ptr %13, align 8, !tbaa !10
  %70 = getelementptr inbounds nuw %struct.Ivy_Man_t_, ptr %69, i32 0, i32 16
  store ptr null, ptr %70, align 8, !tbaa !79
  br label %72

71:                                               ; preds = %43
  br label %72

72:                                               ; preds = %71, %65
  br label %73

73:                                               ; preds = %72, %21
  %74 = load ptr, ptr %14, align 8, !tbaa !10
  call void @Ivy_ManStop(ptr noundef %74)
  %75 = load ptr, ptr %13, align 8, !tbaa !10
  call void @Ivy_ManStop(ptr noundef %75)
  %76 = load ptr, ptr %12, align 8, !tbaa !108
  store ptr %76, ptr %5, align 8
  store i32 1, ptr %15, align 4
  br label %77

77:                                               ; preds = %73, %20
  call void @llvm.lifetime.end.p0(i64 8, ptr %14) #11
  call void @llvm.lifetime.end.p0(i64 8, ptr %13) #11
  call void @llvm.lifetime.end.p0(i64 8, ptr %12) #11
  call void @llvm.lifetime.end.p0(i64 8, ptr %11) #11
  call void @llvm.lifetime.end.p0(i64 64, ptr %10) #11
  %78 = load ptr, ptr %5, align 8
  ret ptr %78
}