; Function Attrs: nounwind uwtable
define noundef ptr @Gia_ManIvyFraig(ptr noundef %0, i32 noundef %1, i32 noundef %2, i32 noundef %3) local_unnamed_addr #0 {
  %5 = alloca %struct.Ivy_FraigParams_t_, align 8
  call void @llvm.lifetime.start.p0(i64 64, ptr nonnull %5) #15
  %6 = tail call ptr @Gia_ManToIvySimple(ptr noundef %0)
  %7 = icmp eq ptr %6, null
  br i1 %7, label %26, label %8

8:                                                ; preds = %4
  call void @Ivy_FraigParamsDefault(ptr noundef nonnull %5) #15
  %9 = getelementptr inbounds nuw i8, ptr %5, i64 52
  store i32 %1, ptr %9, align 4, !tbaa !95
  %10 = getelementptr inbounds nuw i8, ptr %5, i64 44
  store i32 %3, ptr %10, align 4, !tbaa !90
  %11 = getelementptr inbounds nuw i8, ptr %5, i64 40
  store i32 %2, ptr %11, align 8, !tbaa !96
  %12 = getelementptr inbounds nuw i8, ptr %5, i64 48
  store i32 1, ptr %12, align 8, !tbaa !97
  %13 = call ptr @Ivy_FraigPerform(ptr noundef nonnull %6, ptr noundef nonnull %5) #15
  %14 = call ptr @Gia_ManFromIvySimple(ptr noundef %13)
  %15 = getelementptr inbounds nuw i8, ptr %13, i64 200
  %16 = load ptr, ptr %15, align 8, !tbaa !98
  %.not = icmp eq ptr %16, null
  br i1 %.not, label %25, label %17

17:                                               ; preds = %8
  %18 = getelementptr i8, ptr %13, i64 124
  %.val = load i32, ptr %18, align 4, !tbaa !25
  %19 = call ptr @Abc_CexDeriveFromCombModel(ptr noundef nonnull %16, i32 noundef %.val, i32 noundef 0, i32 noundef -1) #15
  %20 = getelementptr inbounds nuw i8, ptr %0, i64 376
  store ptr %19, ptr %20, align 8, !tbaa !142
  %21 = call i32 @Gia_ManFindFailedPoCex(ptr noundef %0, ptr noundef %19, i32 noundef 0) #15
  %22 = load ptr, ptr %20, align 8, !tbaa !142
  store i32 %21, ptr %22, align 4, !tbaa !143
  %23 = load ptr, ptr %15, align 8, !tbaa !98
  %.not29 = icmp eq ptr %23, null
  br i1 %.not29, label %25, label %24

24:                                               ; preds = %17
  call void @free(ptr noundef nonnull %23) #15
  store ptr null, ptr %15, align 8, !tbaa !98
  br label %25

25:                                               ; preds = %24, %17, %8
  call void @Ivy_ManStop(ptr noundef nonnull %6) #15
  call void @Ivy_ManStop(ptr noundef nonnull %13) #15
  br label %26

26:                                               ; preds = %4, %25
  %.0 = phi ptr [ %14, %25 ], [ null, %4 ]
  call void @llvm.lifetime.end.p0(i64 64, ptr nonnull %5) #15
  ret ptr %.0
}